target datalayout = "e-m:e-p270:32:32-p271:32:32-p272:64:64-i64:64-i128:128-f80:128-n8:16:32:64-S128"
target triple = "x86_64-pc-linux-gnu"

%struct.decNumber = type { i32, i32, i8, [1 x i16] }
%struct.decContext = type { i32, i32, i32, i32, i32, i32, i8 }

@d2utable = dso_local constant [50 x i8] c"\00\01\01\01\02\02\02\03\03\03\04\04\04\05\05\05\06\06\06\07\07\07\08\08\08\09\09\09\0A\0A\0A\0B\0B\0B\0C\0C\0C\0D\0D\0D\0E\0E\0E\0F\0F\0F\10\10\10\11", align 16
@DECPOWERS = external constant [10 x i32], align 16
@multies = internal constant [5 x i32] [i32 131073, i32 26215, i32 5243, i32 1049, i32 210], align 16

; Function Attrs: nounwind uwtable
define internal ptr @decTrim(ptr noundef %0, ptr noundef %1, i8 noundef zeroext %2, i8 noundef zeroext %3, ptr noundef %4) #0 {
  %6 = alloca ptr, align 8
  %7 = alloca ptr, align 8
  %8 = alloca ptr, align 8
  %9 = alloca i8, align 1
  %10 = alloca i8, align 1
  %11 = alloca ptr, align 8
  %12 = alloca i32, align 4
  %13 = alloca i32, align 4
  %14 = alloca i32, align 4
  %15 = alloca ptr, align 8
  %16 = alloca i32, align 4
  %17 = alloca i32, align 4
  %18 = alloca i32, align 4
  store ptr %0, ptr %7, align 8, !tbaa !4
  store ptr %1, ptr %8, align 8, !tbaa !4
  store i8 %2, ptr %9, align 1, !tbaa !25
  store i8 %3, ptr %10, align 1, !tbaa !25
  store ptr %4, ptr %11, align 8, !tbaa !40
  call void @llvm.lifetime.start.p0(i64 4, ptr %12) #7
  call void @llvm.lifetime.start.p0(i64 4, ptr %13) #7
  call void @llvm.lifetime.start.p0(i64 4, ptr %14) #7
  call void @llvm.lifetime.start.p0(i64 8, ptr %15) #7
  %19 = load ptr, ptr %11, align 8, !tbaa !40
  store i32 0, ptr %19, align 4, !tbaa !8
  %20 = load ptr, ptr %7, align 8, !tbaa !4
  %21 = getelementptr inbounds nuw %struct.decNumber, ptr %20, i32 0, i32 2
  %22 = load i8, ptr %21, align 4, !tbaa !10
  %23 = zext i8 %22 to i32
  %24 = and i32 %23, 112
  %25 = icmp ne i32 %24, 0
  br i1 %25, label %34, label %26

26:                                               ; preds = %5
  %27 = load ptr, ptr %7, align 8, !tbaa !4
  %28 = getelementptr inbounds nuw %struct.decNumber, ptr %27, i32 0, i32 3
  %29 = getelementptr inbounds [1 x i16], ptr %28, i64 0, i64 0
  %30 = load i16, ptr %29, align 2, !tbaa !14
  %31 = zext i16 %30 to i32
  %32 = and i32 %31, 1
  %33 = icmp ne i32 %32, 0
  br i1 %33, label %34, label %36

34:                                               ; preds = %26, %5
  %35 = load ptr, ptr %7, align 8, !tbaa !4
  store ptr %35, ptr %6, align 8
  store i32 1, ptr %16, align 4
  br label %207

36:                                               ; preds = %26
  %37 = load ptr, ptr %7, align 8, !tbaa !4
  %38 = getelementptr inbounds nuw %struct.decNumber, ptr %37, i32 0, i32 3
  %39 = getelementptr inbounds [1 x i16], ptr %38, i64 0, i64 0
  %40 = load i16, ptr %39, align 2, !tbaa !14
  %41 = zext i16 %40 to i32
  %42 = icmp eq i32 %41, 0
  br i1 %42, label %43, label %59

43:                                               ; preds = %36
  %44 = load ptr, ptr %7, align 8, !tbaa !4
  %45 = getelementptr inbounds nuw %struct.decNumber, ptr %44, i32 0, i32 0
  %46 = load i32, ptr %45, align 4, !tbaa !18
  %47 = icmp eq i32 %46, 1
  br i1 %47, label %48, label %59

48:                                               ; preds = %43
  %49 = load ptr, ptr %7, align 8, !tbaa !4
  %50 = getelementptr inbounds nuw %struct.decNumber, ptr %49, i32 0, i32 2
  %51 = load i8, ptr %50, align 4, !tbaa !10
  %52 = zext i8 %51 to i32
  %53 = and i32 %52, 112
  %54 = icmp eq i32 %53, 0
  br i1 %54, label %55, label %59

55:                                               ; preds = %48
  %56 = load ptr, ptr %7, align 8, !tbaa !4
  %57 = getelementptr inbounds nuw %struct.decNumber, ptr %56, i32 0, i32 1
  store i32 0, ptr %57, align 4, !tbaa !19
  %58 = load ptr, ptr %7, align 8, !tbaa !4
  store ptr %58, ptr %6, align 8
  store i32 1, ptr %16, align 4
  br label %207

59:                                               ; preds = %48, %43, %36
  %60 = load ptr, ptr %7, align 8, !tbaa !4
  %61 = getelementptr inbounds nuw %struct.decNumber, ptr %60, i32 0, i32 1
  %62 = load i32, ptr %61, align 4, !tbaa !19
  store i32 %62, ptr %13, align 4, !tbaa !8
  store i32 1, ptr %14, align 4, !tbaa !8
  %63 = load ptr, ptr %7, align 8, !tbaa !4
  %64 = getelementptr inbounds nuw %struct.decNumber, ptr %63, i32 0, i32 3
  %65 = getelementptr inbounds [1 x i16], ptr %64, i64 0, i64 0
  store ptr %65, ptr %15, align 8, !tbaa !12
  store i32 0, ptr %12, align 4, !tbaa !8
  br label %66

66:                                               ; preds = %123, %59
  %67 = load i32, ptr %12, align 4, !tbaa !8
  %68 = load ptr, ptr %7, align 8, !tbaa !4
  %69 = getelementptr inbounds nuw %struct.decNumber, ptr %68, i32 0, i32 0
  %70 = load i32, ptr %69, align 4, !tbaa !18
  %71 = sub nsw i32 %70, 1
  %72 = icmp slt i32 %67, %71
  br i1 %72, label %73, label %126

73:                                               ; preds = %66
  call void @llvm.lifetime.start.p0(i64 4, ptr %17) #7
  %74 = load ptr, ptr %15, align 8, !tbaa !12
  %75 = load i16, ptr %74, align 2, !tbaa !14
  %76 = zext i16 %75 to i32
  %77 = load i32, ptr %14, align 4, !tbaa !8
  %78 = lshr i32 %76, %77
  %79 = load i32, ptr %14, align 4, !tbaa !8
  %80 = zext i32 %79 to i64
  %81 = getelementptr inbounds nuw [5 x i32], ptr @multies, i64 0, i64 %80
  %82 = load i32, ptr %81, align 4, !tbaa !8
  %83 = mul i32 %78, %82
  %84 = lshr i32 %83, 17
  store i32 %84, ptr %17, align 4, !tbaa !8
  %85 = load ptr, ptr %15, align 8, !tbaa !12
  %86 = load i16, ptr %85, align 2, !tbaa !14
  %87 = zext i16 %86 to i32
  %88 = load i32, ptr %17, align 4, !tbaa !8
  %89 = load i32, ptr %14, align 4, !tbaa !8
  %90 = zext i32 %89 to i64
  %91 = getelementptr inbounds nuw [10 x i32], ptr @DECPOWERS, i64 0, i64 %90
  %92 = load i32, ptr %91, align 4, !tbaa !8
  %93 = mul i32 %88, %92
  %94 = sub i32 %87, %93
  %95 = icmp ne i32 %94, 0
  br i1 %95, label %96, label %97

96:                                               ; preds = %73
  store i32 2, ptr %16, align 4
  br label %120

97:                                               ; preds = %73
  %98 = load i8, ptr %9, align 1, !tbaa !25
  %99 = icmp ne i8 %98, 0
  br i1 %99, label %111, label %100

100:                                              ; preds = %97
  %101 = load i32, ptr %13, align 4, !tbaa !8
  %102 = icmp sle i32 %101, 0
  br i1 %102, label %103, label %110

103:                                              ; preds = %100
  %104 = load i32, ptr %13, align 4, !tbaa !8
  %105 = icmp eq i32 %104, 0
  br i1 %105, label %106, label %107

106:                                              ; preds = %103
  store i32 2, ptr %16, align 4
  br label %120

107:                                              ; preds = %103
  %108 = load i32, ptr %13, align 4, !tbaa !8
  %109 = add nsw i32 %108, 1
  store i32 %109, ptr %13, align 4, !tbaa !8
  br label %110

110:                                              ; preds = %107, %100
  br label %111

111:                                              ; preds = %110, %97
  %112 = load i32, ptr %14, align 4, !tbaa !8
  %113 = add i32 %112, 1
  store i32 %113, ptr %14, align 4, !tbaa !8
  %114 = load i32, ptr %14, align 4, !tbaa !8
  %115 = icmp ugt i32 %114, 3
  br i1 %115, label %116, label %119

116:                                              ; preds = %111
  %117 = load ptr, ptr %15, align 8, !tbaa !12
  %118 = getelementptr inbounds nuw i16, ptr %117, i32 1
  store ptr %118, ptr %15, align 8, !tbaa !12
  store i32 1, ptr %14, align 4, !tbaa !8
  br label %119

119:                                              ; preds = %116, %111
  store i32 0, ptr %16, align 4
  br label %120

120:                                              ; preds = %119, %106, %96
  call void @llvm.lifetime.end.p0(i64 4, ptr %17) #7
  %121 = load i32, ptr %16, align 4
  switch i32 %121, label %209 [
    i32 0, label %122
    i32 2, label %126
  ]

122:                                              ; preds = %120
  br label %123

123:                                              ; preds = %122
  %124 = load i32, ptr %12, align 4, !tbaa !8
  %125 = add nsw i32 %124, 1
  store i32 %125, ptr %12, align 4, !tbaa !8
  br label %66, !llvm.loop !83

126:                                              ; preds = %120, %66
  %127 = load i32, ptr %12, align 4, !tbaa !8
  %128 = icmp eq i32 %127, 0
  br i1 %128, label %129, label %131

129:                                              ; preds = %126
  %130 = load ptr, ptr %7, align 8, !tbaa !4
  store ptr %130, ptr %6, align 8
  store i32 1, ptr %16, align 4
  br label %207

131:                                              ; preds = %126
  %132 = load ptr, ptr %8, align 8, !tbaa !4
  %133 = getelementptr inbounds nuw %struct.decContext, ptr %132, i32 0, i32 6
  %134 = load i8, ptr %133, align 4, !tbaa !35
  %135 = zext i8 %134 to i32
  %136 = icmp ne i32 %135, 0
  br i1 %136, label %137, label %167

137:                                              ; preds = %131
  %138 = load i8, ptr %10, align 1, !tbaa !25
  %139 = icmp ne i8 %138, 0
  br i1 %139, label %167, label %140

140:                                              ; preds = %137
  call void @llvm.lifetime.start.p0(i64 4, ptr %18) #7
  %141 = load ptr, ptr %8, align 8, !tbaa !4
  %142 = getelementptr inbounds nuw %struct.decContext, ptr %141, i32 0, i32 1
  %143 = load i32, ptr %142, align 4, !tbaa !39
  %144 = load ptr, ptr %8, align 8, !tbaa !4
  %145 = getelementptr inbounds nuw %struct.decContext, ptr %144, i32 0, i32 0
  %146 = load i32, ptr %145, align 4, !tbaa !33
  %147 = sub nsw i32 %143, %146
  %148 = add nsw i32 %147, 1
  %149 = load ptr, ptr %7, align 8, !tbaa !4
  %150 = getelementptr inbounds nuw %struct.decNumber, ptr %149, i32 0, i32 1
  %151 = load i32, ptr %150, align 4, !tbaa !19
  %152 = sub nsw i32 %148, %151
  store i32 %152, ptr %18, align 4, !tbaa !8
  %153 = load i32, ptr %18, align 4, !tbaa !8
  %154 = icmp sle i32 %153, 0
  br i1 %154, label %155, label %157

155:                                              ; preds = %140
  %156 = load ptr, ptr %7, align 8, !tbaa !4
  store ptr %156, ptr %6, align 8
  store i32 1, ptr %16, align 4
  br label %164

157:                                              ; preds = %140
  %158 = load i32, ptr %12, align 4, !tbaa !8
  %159 = load i32, ptr %18, align 4, !tbaa !8
  %160 = icmp sgt i32 %158, %159
  br i1 %160, label %161, label %163

161:                                              ; preds = %157
  %162 = load i32, ptr %18, align 4, !tbaa !8
  store i32 %162, ptr %12, align 4, !tbaa !8
  br label %163

163:                                              ; preds = %161, %157
  store i32 0, ptr %16, align 4
  br label %164

164:                                              ; preds = %163, %155
  call void @llvm.lifetime.end.p0(i64 4, ptr %18) #7
  %165 = load i32, ptr %16, align 4
  switch i32 %165, label %207 [
    i32 0, label %166
  ]

166:                                              ; preds = %164
  br label %167

167:                                              ; preds = %166, %137, %131
  %168 = load ptr, ptr %7, align 8, !tbaa !4
  %169 = getelementptr inbounds nuw %struct.decNumber, ptr %168, i32 0, i32 3
  %170 = getelementptr inbounds [1 x i16], ptr %169, i64 0, i64 0
  %171 = load ptr, ptr %7, align 8, !tbaa !4
  %172 = getelementptr inbounds nuw %struct.decNumber, ptr %171, i32 0, i32 0
  %173 = load i32, ptr %172, align 4, !tbaa !18
  %174 = icmp sle i32 %173, 49
  br i1 %174, label %175, label %183

175:                                              ; preds = %167
  %176 = load ptr, ptr %7, align 8, !tbaa !4
  %177 = getelementptr inbounds nuw %struct.decNumber, ptr %176, i32 0, i32 0
  %178 = load i32, ptr %177, align 4, !tbaa !18
  %179 = sext i32 %178 to i64
  %180 = getelementptr inbounds [50 x i8], ptr @d2utable, i64 0, i64 %179
  %181 = load i8, ptr %180, align 1, !tbaa !25
  %182 = zext i8 %181 to i32
  br label %190

183:                                              ; preds = %167
  %184 = load ptr, ptr %7, align 8, !tbaa !4
  %185 = getelementptr inbounds nuw %struct.decNumber, ptr %184, i32 0, i32 0
  %186 = load i32, ptr %185, align 4, !tbaa !18
  %187 = add nsw i32 %186, 3
  %188 = sub nsw i32 %187, 1
  %189 = sdiv i32 %188, 3
  br label %190

190:                                              ; preds = %183, %175
  %191 = phi i32 [ %182, %175 ], [ %189, %183 ]
  %192 = load i32, ptr %12, align 4, !tbaa !8
  %193 = call i32 @decShiftToLeast(ptr noundef %170, i32 noundef %191, i32 noundef %192)
  %194 = load i32, ptr %12, align 4, !tbaa !8
  %195 = load ptr, ptr %7, align 8, !tbaa !4
  %196 = getelementptr inbounds nuw %struct.decNumber, ptr %195, i32 0, i32 1
  %197 = load i32, ptr %196, align 4, !tbaa !19
  %198 = add nsw i32 %197, %194
  store i32 %198, ptr %196, align 4, !tbaa !19
  %199 = load i32, ptr %12, align 4, !tbaa !8
  %200 = load ptr, ptr %7, align 8, !tbaa !4
  %201 = getelementptr inbounds nuw %struct.decNumber, ptr %200, i32 0, i32 0
  %202 = load i32, ptr %201, align 4, !tbaa !18
  %203 = sub nsw i32 %202, %199
  store i32 %203, ptr %201, align 4, !tbaa !18
  %204 = load i32, ptr %12, align 4, !tbaa !8
  %205 = load ptr, ptr %11, align 8, !tbaa !40
  store i32 %204, ptr %205, align 4, !tbaa !8
  %206 = load ptr, ptr %7, align 8, !tbaa !4
  store ptr %206, ptr %6, align 8
  store i32 1, ptr %16, align 4
  br label %207

207:                                              ; preds = %190, %164, %129, %55, %34
  call void @llvm.lifetime.end.p0(i64 8, ptr %15) #7
  call void @llvm.lifetime.end.p0(i64 4, ptr %14) #7
  call void @llvm.lifetime.end.p0(i64 4, ptr %13) #7
  call void @llvm.lifetime.end.p0(i64 4, ptr %12) #7
  %208 = load ptr, ptr %6, align 8
  ret ptr %208

209:                                              ; preds = %120
  unreachable
}