; Function Attrs: nofree norecurse nosync nounwind memory(argmem: readwrite) uwtable
define internal fastcc noundef ptr @decTrim(ptr noundef returned %0, ptr noundef readonly captures(none) %1, i8 noundef zeroext range(i8 0, 2) %2, i8 noundef zeroext range(i8 0, 2) %3, ptr noundef nonnull writeonly captures(none) initializes((0, 4)) %4) unnamed_addr #0 {
  store i32 0, ptr %4, align 4, !tbaa !16
  %6 = getelementptr inbounds nuw i8, ptr %0, i64 8
  %7 = load i8, ptr %6, align 4, !tbaa !4
  %8 = and i8 %7, 112
  %.not = icmp eq i8 %8, 0
  br i1 %.not, label %9, label %.thread.thread102

9:                                                ; preds = %5
  %10 = getelementptr inbounds nuw i8, ptr %0, i64 10
  %11 = load i16, ptr %10, align 2, !tbaa !11
  %12 = and i16 %11, 1
  %.not72 = icmp eq i16 %12, 0
  br i1 %.not72, label %13, label %.thread.thread102

13:                                               ; preds = %9
  %14 = icmp eq i16 %11, 0
  %.pre = load i32, ptr %0, align 4, !tbaa !10
  %15 = icmp eq i32 %.pre, 1
  %or.cond108 = select i1 %14, i1 %15, i1 false
  %16 = getelementptr inbounds nuw i8, ptr %0, i64 4
  br i1 %or.cond108, label %17, label %18

17:                                               ; preds = %13
  store i32 0, ptr %16, align 4, !tbaa !9
  br label %.thread.thread102

18:                                               ; preds = %13
  %19 = load i32, ptr %16, align 4, !tbaa !9
  %20 = add i32 %.pre, -1
  %21 = icmp sgt i32 %.pre, 1
  br i1 %21, label %.lr.ph, label %.thread.thread102

.lr.ph:                                           ; preds = %18
  %22 = icmp eq i8 %2, 0
  br i1 %22, label %.lr.ph.split, label %.lr.ph.split.us

.lr.ph.split.us:                                  ; preds = %.lr.ph, %34
  %.05686.us = phi i32 [ %37, %34 ], [ 0, %.lr.ph ]
  %.06085.us = phi ptr [ %spec.select74.us, %34 ], [ %10, %.lr.ph ]
  %.06384.us = phi i32 [ %spec.select.us, %34 ], [ 1, %.lr.ph ]
  %23 = load i16, ptr %.06085.us, align 2, !tbaa !11
  %24 = zext i16 %23 to i32
  %25 = lshr i32 %24, %.06384.us
  %26 = zext nneg i32 %.06384.us to i64
  %27 = getelementptr inbounds nuw [5 x i32], ptr @multies, i64 0, i64 %26
  %28 = load i32, ptr %27, align 4, !tbaa !16
  %29 = mul i32 %25, %28
  %30 = lshr i32 %29, 17
  %31 = getelementptr inbounds nuw [10 x i32], ptr @DECPOWERS, i64 0, i64 %26
  %32 = load i32, ptr %31, align 4, !tbaa !16
  %33 = mul i32 %30, %32
  %.not73.us = icmp eq i32 %33, %24
  br i1 %.not73.us, label %34, label %.thread

34:                                               ; preds = %.lr.ph.split.us
  %35 = add nuw nsw i32 %.06384.us, 1
  %36 = icmp ugt i32 %.06384.us, 2
  %spec.select.us = select i1 %36, i32 1, i32 %35
  %spec.select74.idx.us = select i1 %36, i64 2, i64 0
  %spec.select74.us = getelementptr inbounds nuw i8, ptr %.06085.us, i64 %spec.select74.idx.us
  %37 = add nuw nsw i32 %.05686.us, 1
  %exitcond.not = icmp eq i32 %37, %20
  br i1 %exitcond.not, label %.thread.thread, label %.lr.ph.split.us, !llvm.loop !69

.lr.ph.split:                                     ; preds = %.lr.ph, %55
  %.05686 = phi i32 [ %58, %55 ], [ 0, %.lr.ph ]
  %.06085 = phi ptr [ %spec.select74, %55 ], [ %10, %.lr.ph ]
  %.06384 = phi i32 [ %spec.select, %55 ], [ 1, %.lr.ph ]
  %.06683 = phi i32 [ %.268, %55 ], [ %19, %.lr.ph ]
  %38 = load i16, ptr %.06085, align 2, !tbaa !11
  %39 = zext i16 %38 to i32
  %40 = lshr i32 %39, %.06384
  %41 = zext nneg i32 %.06384 to i64
  %42 = getelementptr inbounds nuw [5 x i32], ptr @multies, i64 0, i64 %41
  %43 = load i32, ptr %42, align 4, !tbaa !16
  %44 = mul i32 %40, %43
  %45 = lshr i32 %44, 17
  %46 = getelementptr inbounds nuw [10 x i32], ptr @DECPOWERS, i64 0, i64 %41
  %47 = load i32, ptr %46, align 4, !tbaa !16
  %48 = mul i32 %45, %47
  %.not73 = icmp eq i32 %48, %39
  br i1 %.not73, label %49, label %.thread

49:                                               ; preds = %.lr.ph.split
  %50 = icmp slt i32 %.06683, 1
  br i1 %50, label %51, label %55

51:                                               ; preds = %49
  %52 = icmp eq i32 %.06683, 0
  br i1 %52, label %.thread, label %53

53:                                               ; preds = %51
  %54 = add nsw i32 %.06683, 1
  br label %55

55:                                               ; preds = %53, %49
  %.268 = phi i32 [ %54, %53 ], [ %.06683, %49 ]
  %56 = add nuw nsw i32 %.06384, 1
  %57 = icmp ugt i32 %.06384, 2
  %spec.select = select i1 %57, i32 1, i32 %56
  %spec.select74.idx = select i1 %57, i64 2, i64 0
  %spec.select74 = getelementptr inbounds nuw i8, ptr %.06085, i64 %spec.select74.idx
  %58 = add nuw nsw i32 %.05686, 1
  %exitcond99.not = icmp eq i32 %58, %20
  br i1 %exitcond99.not, label %.thread.thread, label %.lr.ph.split, !llvm.loop !69

.thread:                                          ; preds = %.lr.ph.split.us, %.lr.ph.split, %51
  %.056.lcssa = phi i32 [ %.05686, %51 ], [ %.05686, %.lr.ph.split ], [ %.05686.us, %.lr.ph.split.us ]
  %59 = icmp eq i32 %.056.lcssa, 0
  br i1 %59, label %.thread.thread102, label %.thread.thread

.thread.thread:                                   ; preds = %34, %55, %.thread
  %.056.lcssa101 = phi i32 [ %.056.lcssa, %.thread ], [ %20, %55 ], [ %20, %34 ]
  %60 = getelementptr inbounds nuw i8, ptr %1, i64 24
  %61 = load i8, ptr %60, align 4, !tbaa !27
  %62 = icmp eq i8 %61, 0
  %63 = icmp ne i8 %3, 0
  %or.cond = or i1 %63, %62
  br i1 %or.cond, label %72, label %64

64:                                               ; preds = %.thread.thread
  %65 = getelementptr inbounds nuw i8, ptr %1, i64 4
  %66 = load i32, ptr %65, align 4, !tbaa !31
  %67 = load i32, ptr %1, align 4, !tbaa !25
  %68 = add i32 %66, 1
  %69 = add i32 %19, %67
  %70 = sub i32 %68, %69
  %71 = icmp sgt i32 %70, 0
  %spec.select75 = tail call i32 @llvm.smin.i32(i32 %.056.lcssa101, i32 %70)
  br i1 %71, label %72, label %.thread.thread102

72:                                               ; preds = %64, %.thread.thread
  %.157 = phi i32 [ %.056.lcssa101, %.thread.thread ], [ %spec.select75, %64 ]
  %73 = icmp slt i32 %.pre, 50
  br i1 %73, label %74, label %79

74:                                               ; preds = %72
  %75 = zext nneg i32 %.pre to i64
  %76 = getelementptr inbounds nuw [50 x i8], ptr @d2utable, i64 0, i64 %75
  %77 = load i8, ptr %76, align 1, !tbaa !19
  %78 = zext i8 %77 to i32
  br label %82

79:                                               ; preds = %72
  %80 = add nuw nsw i32 %.pre, 2
  %81 = udiv i32 %80, 3
  br label %82

82:                                               ; preds = %79, %74
  %83 = phi i32 [ %78, %74 ], [ %81, %79 ]
  %84 = tail call fastcc i32 @decShiftToLeast(ptr noundef nonnull %10, i32 noundef %83, i32 noundef %.157)
  %85 = load i32, ptr %16, align 4, !tbaa !9
  %86 = add nsw i32 %85, %.157
  store i32 %86, ptr %16, align 4, !tbaa !9
  %87 = load i32, ptr %0, align 4, !tbaa !10
  %88 = sub nsw i32 %87, %.157
  store i32 %88, ptr %0, align 4, !tbaa !10
  store i32 %.157, ptr %4, align 4, !tbaa !16
  br label %.thread.thread102

.thread.thread102:                                ; preds = %18, %.thread, %5, %9, %64, %82, %17
  ret ptr %0
}